target datalayout = "e-m:e-p270:32:32-p271:32:32-p272:64:64-i64:64-i128:128-f80:128-n8:16:32:64-S128"
target triple = "x86_64-pc-linux-gnu"

%struct.FT_CharMapRec_ = type { ptr, i32, i16, i16 }
%struct.PCF_EncRec_ = type { i16, i16, i16, i16, i16, ptr }
%struct.FT_CMapRec_ = type { %struct.FT_CharMapRec_, ptr }
%struct.PCF_CMapRec_ = type { %struct.FT_CMapRec_, ptr }

; Function Attrs: nounwind uwtable
define internal i32 @pcf_cmap_char_next(ptr noundef %0, ptr noundef %1) #0 {
  %3 = alloca ptr, align 8
  %4 = alloca ptr, align 8
  %5 = alloca ptr, align 8
  %6 = alloca i32, align 4
  %7 = alloca i32, align 4
  %8 = alloca i32, align 4
  %9 = alloca i32, align 4
  %10 = alloca i32, align 4
  %11 = alloca i32, align 4
  store ptr %0, ptr %3, align 8
  store ptr %1, ptr %4, align 8
  %12 = load ptr, ptr %3, align 8
  %13 = getelementptr inbounds %struct.PCF_CMapRec_, ptr %12, i32 0, i32 1
  %14 = load ptr, ptr %13, align 8
  store ptr %14, ptr %5, align 8
  %15 = load ptr, ptr %4, align 8
  %16 = load i32, ptr %15, align 4
  %17 = add i32 %16, 1
  store i32 %17, ptr %6, align 4
  %18 = load i32, ptr %6, align 4
  %19 = lshr i32 %18, 8
  %20 = load ptr, ptr %5, align 8
  %21 = getelementptr inbounds %struct.PCF_EncRec_, ptr %20, i32 0, i32 2
  %22 = load i16, ptr %21, align 4
  %23 = zext i16 %22 to i32
  %24 = sub i32 %19, %23
  store i32 %24, ptr %7, align 4
  %25 = load i32, ptr %6, align 4
  %26 = and i32 %25, 255
  %27 = load ptr, ptr %5, align 8
  %28 = getelementptr inbounds %struct.PCF_EncRec_, ptr %27, i32 0, i32 0
  %29 = load i16, ptr %28, align 8
  %30 = zext i16 %29 to i32
  %31 = sub i32 %26, %30
  store i32 %31, ptr %8, align 4
  %32 = load ptr, ptr %5, align 8
  %33 = getelementptr inbounds %struct.PCF_EncRec_, ptr %32, i32 0, i32 3
  %34 = load i16, ptr %33, align 2
  %35 = zext i16 %34 to i32
  %36 = load ptr, ptr %5, align 8
  %37 = getelementptr inbounds %struct.PCF_EncRec_, ptr %36, i32 0, i32 2
  %38 = load i16, ptr %37, align 4
  %39 = zext i16 %38 to i32
  %40 = sub nsw i32 %35, %39
  %41 = add nsw i32 %40, 1
  store i32 %41, ptr %9, align 4
  %42 = load ptr, ptr %5, align 8
  %43 = getelementptr inbounds %struct.PCF_EncRec_, ptr %42, i32 0, i32 1
  %44 = load i16, ptr %43, align 2
  %45 = zext i16 %44 to i32
  %46 = load ptr, ptr %5, align 8
  %47 = getelementptr inbounds %struct.PCF_EncRec_, ptr %46, i32 0, i32 0
  %48 = load i16, ptr %47, align 8
  %49 = zext i16 %48 to i32
  %50 = sub nsw i32 %45, %49
  %51 = add nsw i32 %50, 1
  store i32 %51, ptr %10, align 4
  store i32 0, ptr %11, align 4
  %52 = load i32, ptr %7, align 4
  %53 = icmp slt i32 %52, 0
  br i1 %53, label %54, label %55

54:                                               ; preds = %2
  store i32 0, ptr %7, align 4
  br label %55

55:                                               ; preds = %54, %2
  %56 = load i32, ptr %8, align 4
  %57 = icmp slt i32 %56, 0
  br i1 %57, label %58, label %59

58:                                               ; preds = %55
  store i32 0, ptr %8, align 4
  br label %59

59:                                               ; preds = %58, %55
  br label %60

60:                                               ; preds = %90, %59
  %61 = load i32, ptr %7, align 4
  %62 = load i32, ptr %9, align 4
  %63 = icmp ult i32 %61, %62
  br i1 %63, label %64, label %93

64:                                               ; preds = %60
  br label %65

65:                                               ; preds = %86, %64
  %66 = load i32, ptr %8, align 4
  %67 = load i32, ptr %10, align 4
  %68 = icmp ult i32 %66, %67
  br i1 %68, label %69, label %89

69:                                               ; preds = %65
  %70 = load ptr, ptr %5, align 8
  %71 = getelementptr inbounds %struct.PCF_EncRec_, ptr %70, i32 0, i32 5
  %72 = load ptr, ptr %71, align 8
  %73 = load i32, ptr %7, align 4
  %74 = load i32, ptr %10, align 4
  %75 = mul i32 %73, %74
  %76 = load i32, ptr %8, align 4
  %77 = add i32 %75, %76
  %78 = zext i32 %77 to i64
  %79 = getelementptr inbounds i16, ptr %72, i64 %78
  %80 = load i16, ptr %79, align 2
  %81 = zext i16 %80 to i32
  store i32 %81, ptr %11, align 4
  %82 = load i32, ptr %11, align 4
  %83 = icmp ne i32 %82, 65535
  br i1 %83, label %84, label %85

84:                                               ; preds = %69
  br label %94

85:                                               ; preds = %69
  br label %86

86:                                               ; preds = %85
  %87 = load i32, ptr %8, align 4
  %88 = add i32 %87, 1
  store i32 %88, ptr %8, align 4
  br label %65, !llvm.loop !23

89:                                               ; preds = %65
  br label %90

90:                                               ; preds = %89
  %91 = load i32, ptr %7, align 4
  %92 = add i32 %91, 1
  store i32 %92, ptr %7, align 4
  store i32 0, ptr %8, align 4
  br label %60, !llvm.loop !24

93:                                               ; preds = %60
  br label %94

94:                                               ; preds = %93, %84
  %95 = load i32, ptr %7, align 4
  %96 = load ptr, ptr %5, align 8
  %97 = getelementptr inbounds %struct.PCF_EncRec_, ptr %96, i32 0, i32 2
  %98 = load i16, ptr %97, align 4
  %99 = zext i16 %98 to i32
  %100 = add i32 %95, %99
  %101 = shl i32 %100, 8
  %102 = load i32, ptr %8, align 4
  %103 = load ptr, ptr %5, align 8
  %104 = getelementptr inbounds %struct.PCF_EncRec_, ptr %103, i32 0, i32 0
  %105 = load i16, ptr %104, align 8
  %106 = zext i16 %105 to i32
  %107 = add i32 %102, %106
  %108 = or i32 %101, %107
  %109 = load ptr, ptr %4, align 8
  store i32 %108, ptr %109, align 4
  %110 = load i32, ptr %11, align 4
  ret i32 %110
}