; Function Attrs: nofree norecurse nosync nounwind memory(read, argmem: readwrite, inaccessiblemem: none) uwtable
define internal range(i32 0, 65536) i32 @pcf_cmap_char_next(ptr nocapture noundef readonly %0, ptr nocapture noundef %1) #11 {
  %3 = getelementptr inbounds i8, ptr %0, i64 24
  %4 = load ptr, ptr %3, align 8
  %5 = load i32, ptr %1, align 4
  %6 = add i32 %5, 1
  %7 = lshr i32 %6, 8
  %8 = getelementptr inbounds i8, ptr %4, i64 4
  %9 = load i16, ptr %8, align 4
  %10 = zext i16 %9 to i32
  %11 = sub nsw i32 %7, %10
  %12 = and i32 %6, 255
  %13 = load i16, ptr %4, align 8
  %14 = zext i16 %13 to i32
  %15 = sub nsw i32 %12, %14
  %16 = getelementptr inbounds i8, ptr %4, i64 6
  %17 = load i16, ptr %16, align 2
  %18 = zext i16 %17 to i32
  %reass.sub = sub nsw i32 %18, %10
  %19 = add nsw i32 %reass.sub, 1
  %20 = getelementptr inbounds i8, ptr %4, i64 2
  %21 = load i16, ptr %20, align 2
  %22 = zext i16 %21 to i32
  %23 = sub nsw i32 %22, %14
  %24 = add nsw i32 %23, 1
  %spec.store.select = tail call i32 @llvm.smax.i32(i32 %11, i32 0)
  %spec.store.select1 = tail call i32 @llvm.smax.i32(i32 %15, i32 0)
  %25 = icmp ult i32 %spec.store.select, %19
  br i1 %25, label %.preheader.lr.ph, label %.loopexit36

.preheader.lr.ph:                                 ; preds = %2
  %26 = getelementptr inbounds i8, ptr %4, i64 16
  br label %.preheader

.preheader:                                       ; preds = %.preheader.lr.ph, %._crit_edge
  %.047 = phi i32 [ 0, %.preheader.lr.ph ], [ %.1.lcssa, %._crit_edge ]
  %.02946 = phi i32 [ %spec.store.select, %.preheader.lr.ph ], [ %38, %._crit_edge ]
  %.03045 = phi i32 [ %spec.store.select1, %.preheader.lr.ph ], [ 0, %._crit_edge ]
  %27 = icmp ult i32 %.03045, %24
  br i1 %27, label %.lr.ph, label %._crit_edge

.lr.ph:                                           ; preds = %.preheader
  %28 = load ptr, ptr %26, align 8
  %29 = mul i32 %.02946, %24
  %30 = zext nneg i32 %.03045 to i64
  br label %31

31:                                               ; preds = %.lr.ph, %37
  %indvars.iv = phi i64 [ %30, %.lr.ph ], [ %indvars.iv.next, %37 ]
  %32 = trunc nuw i64 %indvars.iv to i32
  %33 = add i32 %29, %32
  %34 = zext i32 %33 to i64
  %35 = getelementptr inbounds i16, ptr %28, i64 %34
  %36 = load i16, ptr %35, align 2
  %.not = icmp eq i16 %36, -1
  br i1 %.not, label %37, label %.loopexit

37:                                               ; preds = %31
  %indvars.iv.next = add nuw nsw i64 %indvars.iv, 1
  %lftr.wideiv = trunc i64 %indvars.iv.next to i32
  %exitcond.not = icmp eq i32 %24, %lftr.wideiv
  br i1 %exitcond.not, label %._crit_edge, label %31, !llvm.loop !27

._crit_edge:                                      ; preds = %37, %.preheader
  %.1.lcssa = phi i32 [ %.047, %.preheader ], [ 65535, %37 ]
  %38 = add nuw i32 %.02946, 1
  %exitcond55.not = icmp eq i32 %.02946, %reass.sub
  br i1 %exitcond55.not, label %.loopexit36, label %.preheader, !llvm.loop !28

.loopexit:                                        ; preds = %31
  %39 = zext i16 %36 to i32
  br label %.loopexit36

.loopexit36:                                      ; preds = %._crit_edge, %2, %.loopexit
  %.02941 = phi i32 [ %.02946, %.loopexit ], [ %spec.store.select, %2 ], [ %19, %._crit_edge ]
  %.232 = phi i32 [ %32, %.loopexit ], [ %spec.store.select1, %2 ], [ 0, %._crit_edge ]
  %.2 = phi i32 [ %39, %.loopexit ], [ 0, %2 ], [ %.1.lcssa, %._crit_edge ]
  %40 = add i32 %.02941, %10
  %41 = shl i32 %40, 8
  %42 = add i32 %.232, %14
  %43 = or i32 %42, %41
  store i32 %43, ptr %1, align 4
  ret i32 %.2
}